; Function Attrs: nounwind uwtable
define i32 @Wln_TrasformNameId(ptr noundef readonly captures(none) %0, ptr noundef %1, ptr noundef %2) local_unnamed_addr #5 {
  %4 = getelementptr inbounds nuw i8, ptr %0, i64 152
  %5 = load ptr, ptr %4, align 8, !tbaa !10
  %6 = getelementptr i8, ptr %1, i64 640
  %.val = load ptr, ptr %6, align 8, !tbaa !21
  %7 = ptrtoint ptr %2 to i64
  %8 = ptrtoint ptr %.val to i64
  %9 = sub i64 %7, %8
  %10 = sdiv exact i64 %9, 24
  %11 = trunc i64 %10 to i32
  %12 = tail call ptr @Wlc_ObjName(ptr noundef %1, i32 noundef %11) #15
  %13 = tail call i32 @Abc_NamStrFindOrAdd(ptr noundef %5, ptr noundef %12, ptr noundef null) #15
  ret i32 %13
}